target datalayout = "e-m:e-p270:32:32-p271:32:32-p272:64:64-i64:64-i128:128-f80:128-n8:16:32:64-S128"
target triple = "x86_64-pc-linux-gnu"

@stderr = external global ptr, align 8
@.str.1 = private unnamed_addr constant [2 x i8] c"-\00", align 1
@stdout = external global ptr, align 8
@.str.7 = private unnamed_addr constant [3 x i8] c"wb\00", align 1
@.str.8 = private unnamed_addr constant [37 x i8] c"Error! Cannot open output file '%s'\0A\00", align 1

; Function Attrs: nounwind uwtable
define hidden ptr @ImgIoUtilSetBinaryMode(ptr noundef %0) #0 {
  %2 = alloca ptr, align 8
  store ptr %0, ptr %2, align 8
  %3 = load ptr, ptr %2, align 8
  ret ptr %3
}

; Function Attrs: nounwind uwtable
define hidden i32 @ImgIoUtilWriteFile(ptr noundef %0, ptr noundef %1, i64 noundef %2) #0 {
  %4 = alloca i32, align 4
  %5 = alloca ptr, align 8
  %6 = alloca ptr, align 8
  %7 = alloca i64, align 8
  %8 = alloca i32, align 4
  %9 = alloca ptr, align 8
  %10 = alloca i32, align 4
  store ptr %0, ptr %5, align 8
  store ptr %1, ptr %6, align 8
  store i64 %2, ptr %7, align 8
  %11 = load ptr, ptr %5, align 8
  %12 = icmp eq ptr %11, null
  br i1 %12, label %18, label %13

13:                                               ; preds = %3
  %14 = load ptr, ptr %5, align 8
  %15 = call i32 @strcmp(ptr noundef %14, ptr noundef @.str.1) #8
  %16 = icmp ne i32 %15, 0
  %17 = xor i1 %16, true
  br label %18

18:                                               ; preds = %13, %3
  %19 = phi i1 [ true, %3 ], [ %17, %13 ]
  %20 = zext i1 %19 to i32
  store i32 %20, ptr %10, align 4
  %21 = load ptr, ptr %6, align 8
  %22 = icmp eq ptr %21, null
  br i1 %22, label %23, label %24

23:                                               ; preds = %18
  store i32 0, ptr %4, align 4
  br label %56

24:                                               ; preds = %18
  %25 = load i32, ptr %10, align 4
  %26 = icmp ne i32 %25, 0
  br i1 %26, label %27, label %30

27:                                               ; preds = %24
  %28 = load ptr, ptr @stdout, align 8
  %29 = call ptr @ImgIoUtilSetBinaryMode(ptr noundef %28)
  br label %33

30:                                               ; preds = %24
  %31 = load ptr, ptr %5, align 8
  %32 = call noalias ptr @fopen(ptr noundef %31, ptr noundef @.str.7)
  br label %33

33:                                               ; preds = %30, %27
  %34 = phi ptr [ %29, %27 ], [ %32, %30 ]
  store ptr %34, ptr %9, align 8
  %35 = load ptr, ptr %9, align 8
  %36 = icmp eq ptr %35, null
  br i1 %36, label %37, label %41

37:                                               ; preds = %33
  %38 = load ptr, ptr @stderr, align 8
  %39 = load ptr, ptr %5, align 8
  %40 = call i32 (ptr, ptr, ...) @fprintf(ptr noundef %38, ptr noundef @.str.8, ptr noundef %39) #6
  store i32 0, ptr %4, align 4
  br label %56

41:                                               ; preds = %33
  %42 = load ptr, ptr %6, align 8
  %43 = load i64, ptr %7, align 8
  %44 = load ptr, ptr %9, align 8
  %45 = call i64 @fwrite(ptr noundef %42, i64 noundef %43, i64 noundef 1, ptr noundef %44)
  %46 = icmp eq i64 %45, 1
  %47 = zext i1 %46 to i32
  store i32 %47, ptr %8, align 4
  %48 = load ptr, ptr %9, align 8
  %49 = load ptr, ptr @stdout, align 8
  %50 = icmp ne ptr %48, %49
  br i1 %50, label %51, label %54

51:                                               ; preds = %41
  %52 = load ptr, ptr %9, align 8
  %53 = call i32 @fclose(ptr noundef %52)
  br label %54

54:                                               ; preds = %51, %41
  %55 = load i32, ptr %8, align 4
  store i32 %55, ptr %4, align 4
  br label %56

56:                                               ; preds = %54, %37, %23
  %57 = load i32, ptr %4, align 4
  ret i32 %57
}