; Function Attrs: nofree nounwind uwtable
define hidden range(i32 0, 2) i32 @ImgIoUtilWriteFile(ptr noundef %0, ptr noundef %1, i64 noundef %2) local_unnamed_addr #7 {
  %4 = icmp eq ptr %0, null
  %5 = icmp eq ptr %1, null
  br i1 %4, label %.thread, label %6

6:                                                ; preds = %3
  br i1 %5, label %25, label %sub_0

.thread:                                          ; preds = %3
  br i1 %5, label %25, label %.thread17

sub_0:                                            ; preds = %6
  %7 = load i8, ptr %0, align 1
  %.not18 = icmp eq i8 %7, 45
  br i1 %.not18, label %.tail, label %.tail.thread

.tail:                                            ; preds = %sub_0
  %8 = getelementptr inbounds nuw i8, ptr %0, i64 1
  %9 = load i8, ptr %8, align 1
  %10 = icmp eq i8 %9, 0
  br i1 %10, label %.thread17, label %.tail.thread

.thread17:                                        ; preds = %.thread, %.tail
  %11 = load ptr, ptr @stdout, align 8
  br label %13

.tail.thread:                                     ; preds = %sub_0, %.tail
  %12 = tail call noalias ptr @fopen(ptr noundef nonnull %0, ptr noundef nonnull @.str.7)
  br label %13

13:                                               ; preds = %.tail.thread, %.thread17
  %14 = phi ptr [ %11, %.thread17 ], [ %12, %.tail.thread ]
  %15 = icmp eq ptr %14, null
  br i1 %15, label %16, label %19

16:                                               ; preds = %13
  %17 = load ptr, ptr @stderr, align 8
  %18 = tail call i32 (ptr, ptr, ...) @fprintf(ptr noundef %17, ptr noundef nonnull @.str.8, ptr noundef %0) #13
  br label %25

19:                                               ; preds = %13
  %20 = tail call i64 @fwrite(ptr noundef nonnull %1, i64 noundef %2, i64 noundef 1, ptr noundef nonnull %14)
  %21 = icmp eq i64 %20, 1
  %22 = load ptr, ptr @stdout, align 8
  %.not16 = icmp eq ptr %14, %22
  br i1 %.not16, label %25, label %23

23:                                               ; preds = %19
  %24 = tail call i32 @fclose(ptr noundef nonnull %14)
  br label %25

25:                                               ; preds = %.thread, %19, %23, %6, %16
  %.0.shrunk = phi i1 [ false, %16 ], [ false, %6 ], [ %21, %23 ], [ %21, %19 ], [ false, %.thread ]
  %.0 = zext i1 %.0.shrunk to i32
  ret i32 %.0
}